target datalayout = "e-m:e-p270:32:32-p271:32:32-p272:64:64-i64:64-i128:128-f80:128-n8:16:32:64-S128"
target triple = "x86_64-unknown-linux-gnu"

%struct.MemoryRegionOps = type { ptr, ptr, ptr, ptr, i32, %struct.anon.5, %struct.anon.6 }
%struct.anon.5 = type { i32, i32, i8, ptr }
%struct.anon.6 = type { i32, i32, i8 }
%struct.SCSIBusInfo = type { i32, i32, i32, i32, ptr, ptr, ptr, ptr, ptr, ptr, ptr, ptr, ptr, ptr, ptr, ptr }
%struct.ESPState = type { %struct.DeviceState, [16 x i8], [16 x i8], ptr, ptr, i8, i8, i32, i32, i32, %struct.Fifo8, %struct.SCSIBus, ptr, ptr, %struct.Fifo8, i8, i8, i32, i8, i8, i32, i32, ptr, ptr, ptr, ptr, ptr, i8, i8, i32, i32, i8, i32, i32, [16 x i8], [32 x i8], i32 }
%struct.DeviceState = type { %struct.Object, ptr, ptr, i8, i8, i64, ptr, i32, i8, ptr, %struct.NamedGPIOListHead, %struct.NamedClockListHead, %struct.BusStateHead, i32, i32, i32, %struct.ResettableState, ptr, %struct.MemReentrancyGuard }
%struct.Object = type { ptr, ptr, ptr, i32, ptr }
%struct.NamedGPIOListHead = type { ptr }
%struct.NamedClockListHead = type { ptr }
%struct.BusStateHead = type { ptr }
%struct.ResettableState = type { i32, i8, i8 }
%struct.MemReentrancyGuard = type { i8 }
%struct.SCSIBus = type { %struct.BusState, i32, %struct.SCSISense, ptr, i32 }
%struct.BusState = type { %struct.Object, ptr, ptr, ptr, i32, i8, i8, i32, %union.BusChildHead, %struct.BusStateEntry, %struct.ResettableState }
%union.BusChildHead = type { %struct.QTailQLink }
%struct.QTailQLink = type { ptr, ptr }
%struct.BusStateEntry = type { ptr, ptr }
%struct.SCSISense = type { i8, i8, i8 }
%struct.Fifo8 = type { ptr, i32, i32, i32 }
%struct.SysBusESPState = type { %struct.SysBusDevice, %struct.MemoryRegion, %struct.MemoryRegion, i32, %struct.ESPState }
%struct.SysBusDevice = type { %struct.DeviceState, i32, [32 x %struct.anon.1], i32, [32 x i32] }
%struct.anon.1 = type { i64, ptr }
%struct.MemoryRegion = type { %struct.Object, i8, i8, i8, i8, i8, i8, i8, i8, i8, i8, ptr, ptr, ptr, ptr, ptr, ptr, i32, i128, i64, ptr, i64, i8, i8, i8, i8, i8, ptr, i64, i32, %union.anon.2, %union.anon.3, %union.anon.4, ptr, i32, ptr, ptr, i8 }
%union.anon.2 = type { %struct.QTailQLink }
%union.anon.3 = type { %struct.QTailQLink }
%union.anon.4 = type { %struct.QTailQLink }

@.str.1 = private unnamed_addr constant [22 x i8] c"../qemu/hw/scsi/esp.c\00", align 1
@.str.3 = private unnamed_addr constant [4 x i8] c"esp\00", align 1
@.str.69 = private unnamed_addr constant [101 x i8] c"/home/dtcxzyw/WorkSpace/Projects/compilers/llvm-opt-benchmark/bench/qemu/qemu/include/hw/qdev-core.h\00", align 1
@.str.104 = private unnamed_addr constant [100 x i8] c"/home/dtcxzyw/WorkSpace/Projects/compilers/llvm-opt-benchmark/bench/qemu/qemu/include/hw/scsi/esp.h\00", align 1
@__func__.ESP = private unnamed_addr constant [4 x i8] c"ESP\00", align 1
@.str.108 = private unnamed_addr constant [11 x i8] c"sysbus-esp\00", align 1
@.str.109 = private unnamed_addr constant [15 x i8] c"sys-bus-device\00", align 1
@__func__.SYSBUS_ESP = private unnamed_addr constant [11 x i8] c"SYSBUS_ESP\00", align 1
@.str.110 = private unnamed_addr constant [7 x i8] c"device\00", align 1
@.str.111 = private unnamed_addr constant [23 x i8] c"sysbus->it_shift != -1\00", align 1
@__PRETTY_FUNCTION__.sysbus_esp_realize = private unnamed_addr constant [49 x i8] c"void sysbus_esp_realize(DeviceState *, Error **)\00", align 1
@sysbus_esp_mem_ops = internal constant %struct.MemoryRegionOps { ptr @sysbus_esp_mem_read, ptr @sysbus_esp_mem_write, ptr null, ptr null, i32 0, %struct.anon.5 { i32 0, i32 0, i8 0, ptr @esp_mem_accepts }, %struct.anon.6 zeroinitializer }, align 8
@.str.112 = private unnamed_addr constant [9 x i8] c"esp-regs\00", align 1
@sysbus_esp_pdma_ops = internal constant %struct.MemoryRegionOps { ptr @sysbus_esp_pdma_read, ptr @sysbus_esp_pdma_write, ptr null, ptr null, i32 0, %struct.anon.5 { i32 1, i32 4, i8 0, ptr null }, %struct.anon.6 { i32 1, i32 2, i8 0 } }, align 8
@.str.113 = private unnamed_addr constant [9 x i8] c"esp-pdma\00", align 1
@esp_scsi_info = internal constant %struct.SCSIBusInfo { i32 0, i32 0, i32 7, i32 7, ptr null, ptr @esp_transfer_data, ptr null, ptr @esp_command_complete, ptr @esp_request_cancelled, ptr null, ptr null, ptr null, ptr @esp_load_request, ptr null, ptr null, ptr null }, align 8
@.str.114 = private unnamed_addr constant [98 x i8] c"/home/dtcxzyw/WorkSpace/Projects/compilers/llvm-opt-benchmark/bench/qemu/qemu/include/hw/sysbus.h\00", align 1
@__func__.SYS_BUS_DEVICE = private unnamed_addr constant [15 x i8] c"SYS_BUS_DEVICE\00", align 1
@__func__.DEVICE = private unnamed_addr constant [7 x i8] c"DEVICE\00", align 1

; Function Attrs: nounwind sspstrong uwtable
define internal void @scsi_bus_init(ptr noundef %bus, i64 noundef %bus_size, ptr noundef %host, ptr noundef %info) #0 {
entry:
  %bus.addr = alloca ptr, align 8
  %bus_size.addr = alloca i64, align 8
  %host.addr = alloca ptr, align 8
  %info.addr = alloca ptr, align 8
  store ptr %bus, ptr %bus.addr, align 8
  store i64 %bus_size, ptr %bus_size.addr, align 8
  store ptr %host, ptr %host.addr, align 8
  store ptr %info, ptr %info.addr, align 8
  %0 = load ptr, ptr %bus.addr, align 8
  %1 = load i64, ptr %bus_size.addr, align 8
  %2 = load ptr, ptr %host.addr, align 8
  %3 = load ptr, ptr %info.addr, align 8
  call void @scsi_bus_init_named(ptr noundef %0, i64 noundef %1, ptr noundef %2, ptr noundef %3, ptr noundef null)
  ret void
}

; Function Attrs: nounwind sspstrong uwtable
define internal ptr @DEVICE(ptr noundef %obj) #0 {
entry:
  %obj.addr = alloca ptr, align 8
  store ptr %obj, ptr %obj.addr, align 8
  %0 = load ptr, ptr %obj.addr, align 8
  %call = call ptr @object_dynamic_cast_assert(ptr noundef %0, ptr noundef @.str.110, ptr noundef @.str.69, i32 noundef 77, ptr noundef @__func__.DEVICE)
  ret ptr %call
}

; Function Attrs: nounwind sspstrong uwtable
define internal ptr @ESP(ptr noundef %obj) #0 {
entry:
  %obj.addr = alloca ptr, align 8
  store ptr %obj, ptr %obj.addr, align 8
  %0 = load ptr, ptr %obj.addr, align 8
  %call = call ptr @object_dynamic_cast_assert(ptr noundef %0, ptr noundef @.str.3, ptr noundef @.str.104, i32 noundef 20, ptr noundef @__func__.ESP)
  ret ptr %call
}

; Function Attrs: nounwind sspstrong uwtable
define internal ptr @SYSBUS_ESP(ptr noundef %obj) #0 {
entry:
  %obj.addr = alloca ptr, align 8
  store ptr %obj, ptr %obj.addr, align 8
  %0 = load ptr, ptr %obj.addr, align 8
  %call = call ptr @object_dynamic_cast_assert(ptr noundef %0, ptr noundef @.str.108, ptr noundef @.str.104, i32 noundef 69, ptr noundef @__func__.SYSBUS_ESP)
  ret ptr %call
}

; Function Attrs: nounwind sspstrong uwtable
define internal ptr @SYS_BUS_DEVICE(ptr noundef %obj) #0 {
entry:
  %obj.addr = alloca ptr, align 8
  store ptr %obj, ptr %obj.addr, align 8
  %0 = load ptr, ptr %obj.addr, align 8
  %call = call ptr @object_dynamic_cast_assert(ptr noundef %0, ptr noundef @.str.109, ptr noundef @.str.114, i32 noundef 20, ptr noundef @__func__.SYS_BUS_DEVICE)
  ret ptr %call
}

; Function Attrs: nounwind sspstrong uwtable
define internal void @sysbus_esp_realize(ptr noundef %dev, ptr noundef %errp) #0 {
entry:
  %dev.addr = alloca ptr, align 8
  %errp.addr = alloca ptr, align 8
  %sbd = alloca ptr, align 8
  %sysbus = alloca ptr, align 8
  %s = alloca ptr, align 8
  store ptr %dev, ptr %dev.addr, align 8
  store ptr %errp, ptr %errp.addr, align 8
  %0 = load ptr, ptr %dev.addr, align 8
  %call = call ptr @SYS_BUS_DEVICE(ptr noundef %0)
  store ptr %call, ptr %sbd, align 8
  %1 = load ptr, ptr %dev.addr, align 8
  %call1 = call ptr @SYSBUS_ESP(ptr noundef %1)
  store ptr %call1, ptr %sysbus, align 8
  %2 = load ptr, ptr %sysbus, align 8
  %esp = getelementptr inbounds %struct.SysBusESPState, ptr %2, i32 0, i32 4
  %call2 = call ptr @ESP(ptr noundef %esp)
  store ptr %call2, ptr %s, align 8
  %3 = load ptr, ptr %s, align 8
  %call3 = call ptr @DEVICE(ptr noundef %3)
  %4 = load ptr, ptr %errp.addr, align 8
  %call4 = call zeroext i1 @qdev_realize(ptr noundef %call3, ptr noundef null, ptr noundef %4)
  br i1 %call4, label %if.end, label %if.then

if.then:                                          ; preds = %entry
  br label %return

if.end:                                           ; preds = %entry
  %5 = load ptr, ptr %sbd, align 8
  %6 = load ptr, ptr %s, align 8
  %irq = getelementptr inbounds %struct.ESPState, ptr %6, i32 0, i32 3
  call void @sysbus_init_irq(ptr noundef %5, ptr noundef %irq)
  %7 = load ptr, ptr %sbd, align 8
  %8 = load ptr, ptr %s, align 8
  %irq_data = getelementptr inbounds %struct.ESPState, ptr %8, i32 0, i32 4
  call void @sysbus_init_irq(ptr noundef %7, ptr noundef %irq_data)
  %9 = load ptr, ptr %sysbus, align 8
  %it_shift = getelementptr inbounds %struct.SysBusESPState, ptr %9, i32 0, i32 3
  %10 = load i32, ptr %it_shift, align 16
  %cmp = icmp ne i32 %10, -1
  br i1 %cmp, label %if.then5, label %if.else

if.then5:                                         ; preds = %if.end
  br label %if.end6

if.else:                                          ; preds = %if.end
  call void @__assert_fail(ptr noundef @.str.111, ptr noundef @.str.1, i32 noundef 1416, ptr noundef @__PRETTY_FUNCTION__.sysbus_esp_realize) #7
  unreachable

if.end6:                                          ; preds = %if.then5
  %11 = load ptr, ptr %s, align 8
  %chip_id = getelementptr inbounds %struct.ESPState, ptr %11, i32 0, i32 5
  store i8 4, ptr %chip_id, align 8
  %12 = load ptr, ptr %sysbus, align 8
  %iomem = getelementptr inbounds %struct.SysBusESPState, ptr %12, i32 0, i32 1
  %13 = load ptr, ptr %sysbus, align 8
  %14 = load ptr, ptr %sysbus, align 8
  %15 = load ptr, ptr %sysbus, align 8
  %it_shift7 = getelementptr inbounds %struct.SysBusESPState, ptr %15, i32 0, i32 3
  %16 = load i32, ptr %it_shift7, align 16
  %shl = shl i32 16, %16
  %conv = sext i32 %shl to i64
  call void @memory_region_init_io(ptr noundef %iomem, ptr noundef %13, ptr noundef @sysbus_esp_mem_ops, ptr noundef %14, ptr noundef @.str.112, i64 noundef %conv)
  %17 = load ptr, ptr %sbd, align 8
  %18 = load ptr, ptr %sysbus, align 8
  %iomem8 = getelementptr inbounds %struct.SysBusESPState, ptr %18, i32 0, i32 1
  call void @sysbus_init_mmio(ptr noundef %17, ptr noundef %iomem8)
  %19 = load ptr, ptr %sysbus, align 8
  %pdma = getelementptr inbounds %struct.SysBusESPState, ptr %19, i32 0, i32 2
  %20 = load ptr, ptr %sysbus, align 8
  %21 = load ptr, ptr %sysbus, align 8
  call void @memory_region_init_io(ptr noundef %pdma, ptr noundef %20, ptr noundef @sysbus_esp_pdma_ops, ptr noundef %21, ptr noundef @.str.113, i64 noundef 4)
  %22 = load ptr, ptr %sbd, align 8
  %23 = load ptr, ptr %sysbus, align 8
  %pdma9 = getelementptr inbounds %struct.SysBusESPState, ptr %23, i32 0, i32 2
  call void @sysbus_init_mmio(ptr noundef %22, ptr noundef %pdma9)
  %24 = load ptr, ptr %dev.addr, align 8
  call void @qdev_init_gpio_in(ptr noundef %24, ptr noundef @sysbus_esp_gpio_demux, i32 noundef 2)
  %25 = load ptr, ptr %s, align 8
  %bus = getelementptr inbounds %struct.ESPState, ptr %25, i32 0, i32 11
  %26 = load ptr, ptr %dev.addr, align 8
  call void @scsi_bus_init(ptr noundef %bus, i64 noundef 144, ptr noundef %26, ptr noundef @esp_scsi_info)
  br label %return

return:                                           ; preds = %if.end6, %if.then
  ret void
}