; Function Attrs: nounwind sspstrong uwtable
define internal void @sysbus_esp_realize(ptr noundef %dev, ptr noundef %errp) #0 {
entry:
  %call.i = tail call ptr @object_dynamic_cast_assert(ptr noundef %dev, ptr noundef nonnull @.str.109, ptr noundef nonnull @.str.114, i32 noundef 20, ptr noundef nonnull @__func__.SYS_BUS_DEVICE) #10
  %call.i21 = tail call ptr @object_dynamic_cast_assert(ptr noundef %dev, ptr noundef nonnull @.str.108, ptr noundef nonnull @.str.104, i32 noundef 69, ptr noundef nonnull @__func__.SYSBUS_ESP) #10
  %esp = getelementptr inbounds nuw i8, ptr %call.i21, i64 1368
  %call.i22 = tail call ptr @object_dynamic_cast_assert(ptr noundef nonnull %esp, ptr noundef nonnull @.str.3, ptr noundef nonnull @.str.104, i32 noundef 20, ptr noundef nonnull @__func__.ESP) #10
  %call.i23 = tail call ptr @object_dynamic_cast_assert(ptr noundef %call.i22, ptr noundef nonnull @.str.110, ptr noundef nonnull @.str.69, i32 noundef 77, ptr noundef nonnull @__func__.DEVICE) #10
  %call4 = tail call zeroext i1 @qdev_realize(ptr noundef %call.i23, ptr noundef null, ptr noundef %errp) #10
  br i1 %call4, label %if.end, label %return

if.end:                                           ; preds = %entry
  %irq = getelementptr inbounds nuw i8, ptr %call.i22, i64 192
  tail call void @sysbus_init_irq(ptr noundef %call.i, ptr noundef nonnull %irq) #10
  %irq_data = getelementptr inbounds nuw i8, ptr %call.i22, i64 200
  tail call void @sysbus_init_irq(ptr noundef %call.i, ptr noundef nonnull %irq_data) #10
  %it_shift = getelementptr inbounds nuw i8, ptr %call.i21, i64 1360
  %0 = load i32, ptr %it_shift, align 16
  %cmp.not = icmp eq i32 %0, -1
  br i1 %cmp.not, label %if.else, label %if.end6

if.else:                                          ; preds = %if.end
  tail call void @__assert_fail(ptr noundef nonnull @.str.111, ptr noundef nonnull @.str.1, i32 noundef 1416, ptr noundef nonnull @__PRETTY_FUNCTION__.sysbus_esp_realize) #11
  unreachable

if.end6:                                          ; preds = %if.end
  %chip_id = getelementptr inbounds nuw i8, ptr %call.i22, i64 208
  store i8 4, ptr %chip_id, align 8
  %iomem = getelementptr inbounds nuw i8, ptr %call.i21, i64 816
  %1 = load i32, ptr %it_shift, align 16
  %shl = shl i32 16, %1
  %conv = sext i32 %shl to i64
  tail call void @memory_region_init_io(ptr noundef nonnull %iomem, ptr noundef nonnull %call.i21, ptr noundef nonnull @sysbus_esp_mem_ops, ptr noundef nonnull %call.i21, ptr noundef nonnull @.str.112, i64 noundef %conv) #10
  tail call void @sysbus_init_mmio(ptr noundef %call.i, ptr noundef nonnull %iomem) #10
  %pdma = getelementptr inbounds nuw i8, ptr %call.i21, i64 1088
  tail call void @memory_region_init_io(ptr noundef nonnull %pdma, ptr noundef nonnull %call.i21, ptr noundef nonnull @sysbus_esp_pdma_ops, ptr noundef nonnull %call.i21, ptr noundef nonnull @.str.113, i64 noundef 4) #10
  tail call void @sysbus_init_mmio(ptr noundef %call.i, ptr noundef nonnull %pdma) #10
  tail call void @qdev_init_gpio_in(ptr noundef %dev, ptr noundef nonnull @sysbus_esp_gpio_demux, i32 noundef 2) #10
  %bus = getelementptr inbounds nuw i8, ptr %call.i22, i64 248
  tail call void @scsi_bus_init_named(ptr noundef nonnull %bus, i64 noundef 144, ptr noundef %dev, ptr noundef nonnull @esp_scsi_info, ptr noundef null) #10
  br label %return

return:                                           ; preds = %entry, %if.end6
  ret void
}